; Function Attrs: nounwind uwtable
define dso_local void @init_setproctitle(i32 noundef %0, ptr noundef %1) local_unnamed_addr #6 {
  store ptr %1, ptr @save_argv, align 8
  %3 = icmp sgt i32 %0, 0
  br i1 %3, label %.lr.ph.preheader, label %._crit_edge.thread

.lr.ph.preheader:                                 ; preds = %2
  %wide.trip.count = zext nneg i32 %0 to i64
  br label %.lr.ph

.lr.ph:                                           ; preds = %.lr.ph.preheader, %14
  %indvars.iv = phi i64 [ 0, %.lr.ph.preheader ], [ %indvars.iv.next, %14 ]
  %.02937 = phi ptr [ null, %.lr.ph.preheader ], [ %.130, %14 ]
  %4 = icmp eq i64 %indvars.iv, 0
  br i1 %4, label %.lr.ph._crit_edge, label %5

.lr.ph._crit_edge:                                ; preds = %.lr.ph
  %.pre = load ptr, ptr %1, align 8
  br label %10

5:                                                ; preds = %.lr.ph
  %6 = getelementptr inbounds nuw i8, ptr %.02937, i64 1
  %7 = getelementptr inbounds nuw ptr, ptr %1, i64 %indvars.iv
  %8 = load ptr, ptr %7, align 8
  %9 = icmp eq ptr %6, %8
  br i1 %9, label %10, label %14

10:                                               ; preds = %.lr.ph._crit_edge, %5
  %11 = phi ptr [ %.pre, %.lr.ph._crit_edge ], [ %8, %5 ]
  %12 = tail call i64 @strlen(ptr noundef nonnull dereferenceable(1) %11) #15
  %13 = getelementptr inbounds nuw i8, ptr %11, i64 %12
  br label %14

14:                                               ; preds = %5, %10
  %.130 = phi ptr [ %13, %10 ], [ %.02937, %5 ]
  %indvars.iv.next = add nuw nsw i64 %indvars.iv, 1
  %exitcond.not = icmp eq i64 %indvars.iv.next, %wide.trip.count
  br i1 %exitcond.not, label %._crit_edge, label %.lr.ph, !llvm.loop !8

._crit_edge:                                      ; preds = %14
  %15 = icmp eq ptr %.130, null
  br i1 %15, label %._crit_edge.thread, label %.preheader36

.preheader36:                                     ; preds = %._crit_edge
  %16 = load ptr, ptr @environ, align 8
  %17 = load ptr, ptr %16, align 8
  %.not39 = icmp eq ptr %17, null
  br i1 %.not39, label %._crit_edge43, label %.lr.ph42

._crit_edge.thread:                               ; preds = %2, %._crit_edge
  store ptr null, ptr @ps_buffer, align 8
  store i64 0, ptr @ps_buffer_size, align 8
  br label %48

.lr.ph42:                                         ; preds = %.preheader36, %24
  %indvars.iv54 = phi i64 [ %indvars.iv.next55, %24 ], [ 0, %.preheader36 ]
  %18 = phi ptr [ %26, %24 ], [ %17, %.preheader36 ]
  %.23140 = phi ptr [ %.3, %24 ], [ %.130, %.preheader36 ]
  %19 = getelementptr inbounds nuw i8, ptr %.23140, i64 1
  %20 = icmp eq ptr %19, %18
  br i1 %20, label %21, label %24

21:                                               ; preds = %.lr.ph42
  %22 = tail call i64 @strlen(ptr noundef nonnull dereferenceable(1) %18) #15
  %23 = getelementptr inbounds nuw i8, ptr %18, i64 %22
  br label %24

24:                                               ; preds = %.lr.ph42, %21
  %.3 = phi ptr [ %23, %21 ], [ %.23140, %.lr.ph42 ]
  %indvars.iv.next55 = add nuw nsw i64 %indvars.iv54, 1
  %25 = getelementptr inbounds nuw ptr, ptr %16, i64 %indvars.iv.next55
  %26 = load ptr, ptr %25, align 8
  %.not = icmp eq ptr %26, null
  br i1 %.not, label %._crit_edge43.loopexit, label %.lr.ph42, !llvm.loop !11

._crit_edge43.loopexit:                           ; preds = %24
  %27 = shl i64 %indvars.iv54, 3
  %28 = add i64 %27, 16
  %29 = and i64 %28, 34359738360
  br label %._crit_edge43

._crit_edge43:                                    ; preds = %._crit_edge43.loopexit, %.preheader36
  %.231.lcssa = phi ptr [ %.130, %.preheader36 ], [ %.3, %._crit_edge43.loopexit ]
  %.1.lcssa = phi i64 [ 8, %.preheader36 ], [ %29, %._crit_edge43.loopexit ]
  %30 = load ptr, ptr %1, align 8
  store ptr %30, ptr @ps_buffer, align 8
  %31 = ptrtoint ptr %.231.lcssa to i64
  %32 = ptrtoint ptr %30 to i64
  %33 = xor i64 %32, -1
  %34 = add i64 %33, %31
  store i64 %34, ptr @ps_buffer_size, align 8
  %35 = tail call noalias ptr @malloc(i64 noundef %.1.lcssa) #16
  store ptr %35, ptr @new_environ, align 8
  %.not34 = icmp eq ptr %35, null
  br i1 %.not34, label %36, label %.preheader

.preheader:                                       ; preds = %._crit_edge43
  br i1 %.not39, label %._crit_edge49, label %.lr.ph48

36:                                               ; preds = %._crit_edge43
  %37 = load ptr, ptr @stderr, align 8
  %38 = tail call ptr @__errno_location() #17
  %39 = load i32, ptr %38, align 4
  %40 = tail call ptr @strerror(i32 noundef %39) #14
  %41 = tail call i32 (ptr, ptr, ...) @fprintf(ptr noundef %37, ptr noundef nonnull @.str.2, ptr noundef nonnull @.str.3, i32 noundef 313, ptr noundef nonnull @.str.4, ptr noundef %40) #18
  tail call void @abort() #19
  unreachable

.lr.ph48:                                         ; preds = %.preheader, %.lr.ph48
  %indvars.iv57 = phi i64 [ %indvars.iv.next58, %.lr.ph48 ], [ 0, %.preheader ]
  %42 = phi ptr [ %46, %.lr.ph48 ], [ %17, %.preheader ]
  %43 = tail call noalias ptr @strdup(ptr noundef nonnull %42) #14
  %44 = getelementptr inbounds nuw ptr, ptr %35, i64 %indvars.iv57
  store ptr %43, ptr %44, align 8
  %indvars.iv.next58 = add nuw nsw i64 %indvars.iv57, 1
  %45 = getelementptr inbounds nuw ptr, ptr %16, i64 %indvars.iv.next58
  %46 = load ptr, ptr %45, align 8
  %.not35 = icmp eq ptr %46, null
  br i1 %.not35, label %._crit_edge49, label %.lr.ph48, !llvm.loop !12

._crit_edge49:                                    ; preds = %.lr.ph48, %.preheader
  %.lcssa = phi i64 [ 0, %.preheader ], [ %indvars.iv.next58, %.lr.ph48 ]
  %47 = getelementptr inbounds nuw ptr, ptr %35, i64 %.lcssa
  store ptr null, ptr %47, align 8
  store ptr %35, ptr @environ, align 8
  br label %48

48:                                               ; preds = %._crit_edge49, %._crit_edge.thread
  ret void
}